target datalayout = "e-m:e-p270:32:32-p271:32:32-p272:64:64-i64:64-i128:128-f80:128-n8:16:32:64-S128"
target triple = "x86_64-pc-linux-gnu"

; Function Attrs: nounwind uwtable
define internal zeroext i16 @FomLabV2ToLabV4(i16 noundef zeroext %0) #0 {
  %2 = alloca i16, align 2
  %3 = alloca i16, align 2
  %4 = alloca i32, align 4
  store i16 %0, ptr %3, align 2
  %5 = load i16, ptr %3, align 2
  %6 = zext i16 %5 to i32
  %7 = shl i32 %6, 8
  %8 = load i16, ptr %3, align 2
  %9 = zext i16 %8 to i32
  %10 = or i32 %7, %9
  %11 = ashr i32 %10, 8
  store i32 %11, ptr %4, align 4
  %12 = load i32, ptr %4, align 4
  %13 = icmp sgt i32 %12, 65535
  br i1 %13, label %14, label %15

14:                                               ; preds = %1
  store i16 -1, ptr %2, align 2
  br label %18

15:                                               ; preds = %1
  %16 = load i32, ptr %4, align 4
  %17 = trunc i32 %16 to i16
  store i16 %17, ptr %2, align 2
  br label %18

18:                                               ; preds = %15, %14
  %19 = load i16, ptr %2, align 2
  ret i16 %19
}

; Function Attrs: nounwind uwtable
define internal ptr @UnrollALabV2_8(ptr noundef %0, ptr noundef %1, ptr noundef %2, i32 noundef %3) #0 {
  %5 = alloca ptr, align 8
  %6 = alloca ptr, align 8
  %7 = alloca ptr, align 8
  %8 = alloca i32, align 4
  store ptr %0, ptr %5, align 8
  store ptr %1, ptr %6, align 8
  store ptr %2, ptr %7, align 8
  store i32 %3, ptr %8, align 4
  %9 = load ptr, ptr %7, align 8
  %10 = getelementptr inbounds i8, ptr %9, i32 1
  store ptr %10, ptr %7, align 8
  %11 = load ptr, ptr %7, align 8
  %12 = load i8, ptr %11, align 1
  %13 = zext i8 %12 to i16
  %14 = zext i16 %13 to i32
  %15 = shl i32 %14, 8
  %16 = load ptr, ptr %7, align 8
  %17 = load i8, ptr %16, align 1
  %18 = zext i8 %17 to i32
  %19 = or i32 %15, %18
  %20 = trunc i32 %19 to i16
  %21 = call zeroext i16 @FomLabV2ToLabV4(i16 noundef zeroext %20)
  %22 = load ptr, ptr %6, align 8
  %23 = getelementptr inbounds i16, ptr %22, i64 0
  store i16 %21, ptr %23, align 2
  %24 = load ptr, ptr %7, align 8
  %25 = getelementptr inbounds i8, ptr %24, i32 1
  store ptr %25, ptr %7, align 8
  %26 = load ptr, ptr %7, align 8
  %27 = load i8, ptr %26, align 1
  %28 = zext i8 %27 to i16
  %29 = zext i16 %28 to i32
  %30 = shl i32 %29, 8
  %31 = load ptr, ptr %7, align 8
  %32 = load i8, ptr %31, align 1
  %33 = zext i8 %32 to i32
  %34 = or i32 %30, %33
  %35 = trunc i32 %34 to i16
  %36 = call zeroext i16 @FomLabV2ToLabV4(i16 noundef zeroext %35)
  %37 = load ptr, ptr %6, align 8
  %38 = getelementptr inbounds i16, ptr %37, i64 1
  store i16 %36, ptr %38, align 2
  %39 = load ptr, ptr %7, align 8
  %40 = getelementptr inbounds i8, ptr %39, i32 1
  store ptr %40, ptr %7, align 8
  %41 = load ptr, ptr %7, align 8
  %42 = load i8, ptr %41, align 1
  %43 = zext i8 %42 to i16
  %44 = zext i16 %43 to i32
  %45 = shl i32 %44, 8
  %46 = load ptr, ptr %7, align 8
  %47 = load i8, ptr %46, align 1
  %48 = zext i8 %47 to i32
  %49 = or i32 %45, %48
  %50 = trunc i32 %49 to i16
  %51 = call zeroext i16 @FomLabV2ToLabV4(i16 noundef zeroext %50)
  %52 = load ptr, ptr %6, align 8
  %53 = getelementptr inbounds i16, ptr %52, i64 2
  store i16 %51, ptr %53, align 2
  %54 = load ptr, ptr %7, align 8
  %55 = getelementptr inbounds i8, ptr %54, i32 1
  store ptr %55, ptr %7, align 8
  %56 = load ptr, ptr %7, align 8
  ret ptr %56
}